; Function Attrs: nounwind uwtable
define internal fastcc void @Abc_ObjPrintNeighborhood_rec(ptr noundef %0, ptr noundef %1, i32 noundef %2) unnamed_addr #0 {
  %4 = getelementptr inbounds nuw i8, ptr %0, i64 20
  %5 = load i32, ptr %4, align 4
  %6 = and i32 %5, 64
  %7 = icmp ne i32 %6, 0
  %8 = icmp slt i32 %2, 0
  %or.cond = or i1 %8, %7
  br i1 %or.cond, label %.critedge3, label %9

9:                                                ; preds = %3
  %10 = or disjoint i32 %5, 64
  store i32 %10, ptr %4, align 4
  %11 = getelementptr inbounds nuw i8, ptr %1, i64 4
  %12 = load i32, ptr %11, align 4, !tbaa !25
  %13 = load i32, ptr %1, align 8, !tbaa !27
  %14 = icmp eq i32 %12, %13
  br i1 %14, label %15, label %.Vec_PtrGrow.exit11_crit_edge.i

.Vec_PtrGrow.exit11_crit_edge.i:                  ; preds = %9
  %.phi.trans.insert.i = getelementptr inbounds nuw i8, ptr %1, i64 8
  %.pre.i = load ptr, ptr %.phi.trans.insert.i, align 8, !tbaa !28
  br label %Vec_PtrPush.exit

15:                                               ; preds = %9
  %16 = icmp slt i32 %12, 16
  br i1 %16, label %17, label %25

17:                                               ; preds = %15
  %18 = getelementptr inbounds nuw i8, ptr %1, i64 8
  %19 = load ptr, ptr %18, align 8, !tbaa !28
  %.not9.i.i = icmp eq ptr %19, null
  br i1 %.not9.i.i, label %22, label %20

20:                                               ; preds = %17
  %21 = tail call dereferenceable_or_null(128) ptr @realloc(ptr noundef nonnull %19, i64 noundef 128) #19
  br label %Vec_PtrGrow.exit.i

22:                                               ; preds = %17
  %23 = tail call noalias dereferenceable_or_null(128) ptr @malloc(i64 noundef 128) #17
  br label %Vec_PtrGrow.exit.i

Vec_PtrGrow.exit.i:                               ; preds = %22, %20
  %24 = phi ptr [ %21, %20 ], [ %23, %22 ]
  store ptr %24, ptr %18, align 8, !tbaa !28
  store i32 16, ptr %1, align 8, !tbaa !27
  br label %Vec_PtrPush.exit

25:                                               ; preds = %15
  %26 = shl nuw nsw i32 %12, 1
  %27 = getelementptr inbounds nuw i8, ptr %1, i64 8
  %28 = load ptr, ptr %27, align 8, !tbaa !28
  %.not9.i10.i = icmp eq ptr %28, null
  %29 = zext nneg i32 %26 to i64
  %30 = shl nuw nsw i64 %29, 3
  br i1 %.not9.i10.i, label %33, label %31

31:                                               ; preds = %25
  %32 = tail call ptr @realloc(ptr noundef nonnull %28, i64 noundef %30) #19
  br label %35

33:                                               ; preds = %25
  %34 = tail call noalias ptr @malloc(i64 noundef %30) #17
  br label %35

35:                                               ; preds = %33, %31
  %36 = phi ptr [ %32, %31 ], [ %34, %33 ]
  store ptr %36, ptr %27, align 8, !tbaa !28
  store i32 %26, ptr %1, align 8, !tbaa !27
  br label %Vec_PtrPush.exit

Vec_PtrPush.exit:                                 ; preds = %.Vec_PtrGrow.exit11_crit_edge.i, %Vec_PtrGrow.exit.i, %35
  %37 = phi ptr [ %.pre.i, %.Vec_PtrGrow.exit11_crit_edge.i ], [ %36, %35 ], [ %24, %Vec_PtrGrow.exit.i ]
  %38 = load i32, ptr %11, align 4, !tbaa !25
  %39 = add nsw i32 %38, 1
  store i32 %39, ptr %11, align 4, !tbaa !25
  %40 = sext i32 %38 to i64
  %41 = getelementptr inbounds ptr, ptr %37, i64 %40
  store ptr %0, ptr %41, align 8, !tbaa !51
  %42 = load ptr, ptr @stdout, align 8, !tbaa !105
  tail call void @Abc_ObjPrint(ptr noundef %42, ptr noundef nonnull %0) #18
  %43 = getelementptr i8, ptr %0, i64 44
  %.val30 = load i32, ptr %43, align 4, !tbaa !58
  %44 = icmp sgt i32 %.val30, 0
  br i1 %44, label %.lr.ph, label %.critedge.preheader

.lr.ph:                                           ; preds = %Vec_PtrPush.exit
  %45 = getelementptr i8, ptr %0, i64 48
  %46 = add nsw i32 %2, -1
  br label %51

.critedge.preheader:                              ; preds = %51, %Vec_PtrPush.exit
  %47 = getelementptr i8, ptr %0, i64 28
  %.val2532 = load i32, ptr %47, align 4, !tbaa !62
  %48 = icmp sgt i32 %.val2532, 0
  br i1 %48, label %.lr.ph34, label %.critedge3

.lr.ph34:                                         ; preds = %.critedge.preheader
  %49 = getelementptr i8, ptr %0, i64 32
  %50 = add nsw i32 %2, -1
  br label %.critedge

51:                                               ; preds = %.lr.ph, %51
  %indvars.iv = phi i64 [ 0, %.lr.ph ], [ %indvars.iv.next, %51 ]
  %.val26 = load ptr, ptr %0, align 8, !tbaa !52
  %.val27 = load ptr, ptr %45, align 8, !tbaa !57
  %52 = getelementptr i8, ptr %.val26, i64 32
  %.val26.val = load ptr, ptr %52, align 8, !tbaa !56
  %53 = getelementptr i8, ptr %.val26.val, i64 8
  %.val26.val.val = load ptr, ptr %53, align 8, !tbaa !28
  %54 = getelementptr inbounds nuw i32, ptr %.val27, i64 %indvars.iv
  %55 = load i32, ptr %54, align 4, !tbaa !48
  %56 = sext i32 %55 to i64
  %57 = getelementptr inbounds ptr, ptr %.val26.val.val, i64 %56
  %58 = load ptr, ptr %57, align 8, !tbaa !51
  tail call fastcc void @Abc_ObjPrintNeighborhood_rec(ptr noundef %58, ptr noundef nonnull %1, i32 noundef %46)
  %indvars.iv.next = add nuw nsw i64 %indvars.iv, 1
  %.val = load i32, ptr %43, align 4, !tbaa !58
  %59 = sext i32 %.val to i64
  %60 = icmp slt i64 %indvars.iv.next, %59
  br i1 %60, label %51, label %.critedge.preheader, !llvm.loop !126

.critedge:                                        ; preds = %.lr.ph34, %.critedge
  %indvars.iv36 = phi i64 [ 0, %.lr.ph34 ], [ %indvars.iv.next37, %.critedge ]
  %.val28 = load ptr, ptr %0, align 8, !tbaa !52
  %.val29 = load ptr, ptr %49, align 8, !tbaa !55
  %61 = getelementptr i8, ptr %.val28, i64 32
  %.val28.val = load ptr, ptr %61, align 8, !tbaa !56
  %62 = getelementptr i8, ptr %.val28.val, i64 8
  %.val28.val.val = load ptr, ptr %62, align 8, !tbaa !28
  %63 = getelementptr inbounds nuw i32, ptr %.val29, i64 %indvars.iv36
  %64 = load i32, ptr %63, align 4, !tbaa !48
  %65 = sext i32 %64 to i64
  %66 = getelementptr inbounds ptr, ptr %.val28.val.val, i64 %65
  %67 = load ptr, ptr %66, align 8, !tbaa !51
  tail call fastcc void @Abc_ObjPrintNeighborhood_rec(ptr noundef %67, ptr noundef nonnull %1, i32 noundef %50)
  %indvars.iv.next37 = add nuw nsw i64 %indvars.iv36, 1
  %.val25 = load i32, ptr %47, align 4, !tbaa !62
  %68 = sext i32 %.val25 to i64
  %69 = icmp slt i64 %indvars.iv.next37, %68
  br i1 %69, label %.critedge, label %.critedge3, !llvm.loop !127

.critedge3:                                       ; preds = %.critedge, %.critedge.preheader, %3
  ret void
}